target datalayout = "e-m:e-p270:32:32-p271:32:32-p272:64:64-i64:64-i128:128-f80:128-n8:16:32:64-S128"
target triple = "x86_64-pc-linux-gnu"

%"class.fmt::v8::basic_string_view" = type { ptr, i64 }
%"class.fmt::v8::basic_format_args" = type { i64, %union.anon.6 }
%union.anon.6 = type { ptr }
%"class.fmt::v8::detail::value" = type { %union.anon.7 }
%union.anon.7 = type { i128 }
%"class.std::__cxx11::basic_string" = type { %"struct.std::__cxx11::basic_string<char>::_Alloc_hider", i64, %union.anon }
%"struct.std::__cxx11::basic_string<char>::_Alloc_hider" = type { ptr }
%union.anon = type { i64, [8 x i8] }
%"class.fmt::v8::basic_format_string.5" = type { %"class.fmt::v8::basic_string_view" }
%"class.fmt::v8::format_arg_store.9" = type { %"struct.fmt::v8::detail::arg_data.10" }
%"struct.fmt::v8::detail::arg_data.10" = type { [2 x %"class.fmt::v8::detail::value"] }
%"struct.fmt::v8::detail::arg_mapper" = type { i8 }

@.str.1 = private unnamed_addr constant [10 x i8] c"0x{:0{}x}\00", align 1

; Function Attrs: mustprogress uwtable
define linkonce_odr hidden void @_ZN3fmt2v816make_format_argsINS0_20basic_format_contextINS0_8appenderEcEEJRKmRKjEEENS0_16format_arg_storeIT_JDpNSt9remove_cvINSt16remove_referenceIT0_E4typeEE4typeEEEEDpOSD_(ptr dead_on_unwind noalias writable sret(%"class.fmt::v8::format_arg_store.9") align 16 %0, ptr noundef nonnull align 8 dereferenceable(8) %1, ptr noundef nonnull align 4 dereferenceable(4) %2) #1 comdat {
  %4 = alloca ptr, align 8
  %5 = alloca i32, align 4
  %6 = alloca ptr, align 8
  %7 = alloca i64, align 8
  %8 = alloca ptr, align 8
  %9 = alloca i64, align 8
  %10 = alloca ptr, align 8
  %11 = alloca ptr, align 8
  %12 = alloca i32, align 4
  %13 = alloca i32, align 4
  %14 = alloca ptr, align 8
  %15 = alloca ptr, align 8
  %16 = alloca ptr, align 8
  %17 = alloca ptr, align 8
  %18 = alloca ptr, align 8
  %19 = alloca ptr, align 8
  %20 = alloca i32, align 4
  %21 = alloca %"class.fmt::v8::detail::value", align 16
  %22 = alloca ptr, align 8
  %23 = alloca ptr, align 8
  %24 = alloca i32, align 4
  %25 = alloca %"struct.fmt::v8::detail::arg_mapper", align 1
  %26 = alloca i8, align 1
  %27 = alloca i8, align 1
  %28 = alloca i8, align 1
  %29 = alloca i8, align 1
  %30 = alloca %"class.fmt::v8::detail::value", align 16
  %31 = alloca ptr, align 8
  %32 = alloca ptr, align 8
  %33 = alloca i64, align 8
  %34 = alloca %"struct.fmt::v8::detail::arg_mapper", align 1
  %35 = alloca i8, align 1
  %36 = alloca i8, align 1
  %37 = alloca i8, align 1
  %38 = alloca i8, align 1
  %39 = alloca ptr, align 8
  %40 = alloca ptr, align 8
  %41 = alloca ptr, align 8
  %42 = alloca %"class.fmt::v8::detail::value", align 16
  %43 = alloca %"class.fmt::v8::detail::value", align 16
  %44 = alloca ptr, align 8
  %45 = alloca ptr, align 8
  store ptr %1, ptr %44, align 8
  store ptr %2, ptr %45, align 8
  %46 = load ptr, ptr %44, align 8
  %47 = load ptr, ptr %45, align 8
  store ptr %0, ptr %39, align 8
  store ptr %46, ptr %40, align 8
  store ptr %47, ptr %41, align 8
  %48 = load ptr, ptr %39, align 8
  %49 = load ptr, ptr %40, align 8
  store ptr %49, ptr %31, align 8
  %50 = load ptr, ptr %31, align 8
  %51 = load i64, ptr %50, align 8
  store ptr %34, ptr %8, align 8
  store i64 %51, ptr %9, align 8
  %52 = load i64, ptr %9, align 8
  store i64 %52, ptr %33, align 8
  store ptr %33, ptr %32, align 8
  store i8 1, ptr %35, align 1
  store i8 1, ptr %36, align 1
  store i8 1, ptr %37, align 1
  store i8 1, ptr %38, align 1
  %53 = load ptr, ptr %32, align 8
  %54 = load i64, ptr %53, align 8
  store ptr %30, ptr %6, align 8
  store i64 %54, ptr %7, align 8
  %55 = load ptr, ptr %6, align 8
  %56 = load i64, ptr %7, align 8
  store i64 %56, ptr %55, align 16
  %57 = load { i64, i64 }, ptr %30, align 16
  %58 = extractvalue { i64, i64 } %57, 0
  store i64 %58, ptr %42, align 16
  %59 = getelementptr inbounds { i64, i64 }, ptr %42, i32 0, i32 1
  %60 = extractvalue { i64, i64 } %57, 1
  store i64 %60, ptr %59, align 8
  %61 = load ptr, ptr %41, align 8
  store ptr %61, ptr %22, align 8
  %62 = load ptr, ptr %22, align 8
  %63 = load i32, ptr %62, align 4
  store ptr %25, ptr %4, align 8
  store i32 %63, ptr %5, align 4
  %64 = load i32, ptr %5, align 4
  store i32 %64, ptr %24, align 4
  store ptr %24, ptr %23, align 8
  store i8 1, ptr %26, align 1
  store i8 1, ptr %27, align 1
  store i8 1, ptr %28, align 1
  store i8 1, ptr %29, align 1
  %65 = load ptr, ptr %23, align 8
  %66 = load i32, ptr %65, align 4
  store ptr %21, ptr %19, align 8
  store i32 %66, ptr %20, align 4
  %67 = load ptr, ptr %19, align 8
  %68 = load i32, ptr %20, align 4
  store i32 %68, ptr %67, align 16
  %69 = load { i64, i64 }, ptr %21, align 16
  %70 = extractvalue { i64, i64 } %69, 0
  store i64 %70, ptr %43, align 16
  %71 = getelementptr inbounds { i64, i64 }, ptr %43, i32 0, i32 1
  %72 = extractvalue { i64, i64 } %69, 1
  store i64 %72, ptr %71, align 8
  store ptr %48, ptr %16, align 8
  store ptr %42, ptr %17, align 8
  store ptr %43, ptr %18, align 8
  %73 = load ptr, ptr %16, align 8
  %74 = load ptr, ptr %17, align 8
  call void @llvm.memcpy.p0.p0.i64(ptr align 16 %73, ptr align 16 %74, i64 16, i1 false)
  %75 = getelementptr inbounds %"class.fmt::v8::detail::value", ptr %73, i64 1
  %76 = load ptr, ptr %18, align 8
  call void @llvm.memcpy.p0.p0.i64(ptr align 16 %75, ptr align 16 %76, i64 16, i1 false)
  store ptr %48, ptr %10, align 8
  %77 = load ptr, ptr %40, align 8
  %78 = load ptr, ptr %41, align 8
  store ptr null, ptr %11, align 8
  store i32 0, ptr %12, align 4
  store i32 0, ptr %13, align 4
  store ptr %77, ptr %14, align 8
  store ptr %78, ptr %15, align 8
  ret void
}

; Function Attrs: mustprogress nounwind uwtable
define linkonce_odr noundef nonnull align 4 dereferenceable(4) ptr @_ZSt3minIjERKT_S2_S2_(ptr noundef nonnull align 4 dereferenceable(4) %0, ptr noundef nonnull align 4 dereferenceable(4) %1) #0 comdat {
  %3 = alloca ptr, align 8
  %4 = alloca ptr, align 8
  %5 = alloca ptr, align 8
  store ptr %0, ptr %4, align 8
  store ptr %1, ptr %5, align 8
  %6 = load ptr, ptr %5, align 8
  %7 = load i32, ptr %6, align 4
  %8 = load ptr, ptr %4, align 8
  %9 = load i32, ptr %8, align 4
  %10 = icmp ult i32 %7, %9
  br i1 %10, label %11, label %13

11:                                               ; preds = %2
  %12 = load ptr, ptr %5, align 8
  store ptr %12, ptr %3, align 8
  br label %15

13:                                               ; preds = %2
  %14 = load ptr, ptr %4, align 8
  store ptr %14, ptr %3, align 8
  br label %15

15:                                               ; preds = %13, %11
  %16 = load ptr, ptr %3, align 8
  ret ptr %16
}

; Function Attrs: mustprogress nounwind uwtable
define linkonce_odr hidden noundef i64 @_ZNSt11char_traitsIcE6lengthEPKc(ptr noundef %0) #0 comdat align 2 {
  %2 = alloca ptr, align 8
  store ptr %0, ptr %2, align 8
  %3 = load ptr, ptr %2, align 8
  %4 = call i64 @strlen(ptr noundef %3) #10
  ret i64 %4
}

; Function Attrs: mustprogress uwtable
define void @_ZN8WasmEdge19convertUIntToHexStrB5cxx11Emj(ptr dead_on_unwind noalias writable sret(%"class.std::__cxx11::basic_string") align 8 %0, i64 noundef %1, i32 noundef %2) #1 {
  %4 = alloca ptr, align 8
  %5 = alloca ptr, align 8
  %6 = alloca ptr, align 8
  %7 = alloca i64, align 8
  %8 = alloca ptr, align 8
  %9 = alloca ptr, align 8
  %10 = alloca ptr, align 8
  %11 = alloca %"class.fmt::v8::basic_string_view", align 8
  %12 = alloca ptr, align 8
  %13 = alloca ptr, align 8
  %14 = alloca ptr, align 8
  %15 = alloca ptr, align 8
  %16 = alloca ptr, align 8
  %17 = alloca ptr, align 8
  %18 = alloca %"class.fmt::v8::basic_format_string.5", align 8
  %19 = alloca ptr, align 8
  %20 = alloca ptr, align 8
  %21 = alloca %"class.fmt::v8::basic_string_view", align 8
  %22 = alloca %"class.fmt::v8::basic_format_args", align 8
  %23 = alloca %"class.fmt::v8::format_arg_store.9", align 16
  %24 = alloca ptr, align 8
  %25 = alloca i64, align 8
  %26 = alloca i32, align 4
  %27 = alloca %"class.fmt::v8::basic_format_string.5", align 8
  %28 = alloca i32, align 4
  store ptr %0, ptr %24, align 8
  store i64 %1, ptr %25, align 8
  store i32 %2, ptr %26, align 4
  store ptr %27, ptr %15, align 8
  store ptr @.str.1, ptr %16, align 8
  %29 = load ptr, ptr %15, align 8
  %30 = load ptr, ptr %16, align 8
  store ptr %29, ptr %13, align 8
  store ptr %30, ptr %14, align 8
  %31 = load ptr, ptr %13, align 8
  %32 = load ptr, ptr %14, align 8
  store ptr %32, ptr %31, align 8
  %33 = getelementptr inbounds %"class.fmt::v8::basic_string_view", ptr %31, i32 0, i32 1
  %34 = load ptr, ptr %14, align 8
  %35 = call noundef i64 @_ZNSt11char_traitsIcE6lengthEPKc(ptr noundef %34)
  store i64 %35, ptr %33, align 8
  %36 = load ptr, ptr %16, align 8
  store ptr %36, ptr %4, align 8
  store i32 16, ptr %28, align 4
  %37 = call noundef nonnull align 4 dereferenceable(4) ptr @_ZSt3minIjERKT_S2_S2_(ptr noundef nonnull align 4 dereferenceable(4) %26, ptr noundef nonnull align 4 dereferenceable(4) %28)
  %38 = getelementptr inbounds { ptr, i64 }, ptr %27, i32 0, i32 0
  %39 = load ptr, ptr %38, align 8
  %40 = getelementptr inbounds { ptr, i64 }, ptr %27, i32 0, i32 1
  %41 = load i64, ptr %40, align 8
  call void @llvm.experimental.noalias.scope.decl(metadata !15)
  store ptr %0, ptr %17, align 8, !noalias !15
  store ptr %39, ptr %18, align 8, !noalias !15
  %42 = getelementptr inbounds { ptr, i64 }, ptr %18, i32 0, i32 1
  store i64 %41, ptr %42, align 8, !noalias !15
  store ptr %25, ptr %19, align 8, !noalias !15
  store ptr %37, ptr %20, align 8, !noalias !15
  store ptr %18, ptr %12, align 8
  %43 = load ptr, ptr %12, align 8
  call void @llvm.memcpy.p0.p0.i64(ptr align 8 %11, ptr align 8 %43, i64 16, i1 false)
  %44 = load { ptr, i64 }, ptr %11, align 8
  %45 = extractvalue { ptr, i64 } %44, 0
  store ptr %45, ptr %21, align 8, !noalias !15
  %46 = getelementptr inbounds { ptr, i64 }, ptr %21, i32 0, i32 1
  %47 = extractvalue { ptr, i64 } %44, 1
  store i64 %47, ptr %46, align 8, !noalias !15
  %48 = load ptr, ptr %19, align 8, !noalias !15
  %49 = load ptr, ptr %20, align 8, !noalias !15
  call void @_ZN3fmt2v816make_format_argsINS0_20basic_format_contextINS0_8appenderEcEEJRKmRKjEEENS0_16format_arg_storeIT_JDpNSt9remove_cvINSt16remove_referenceIT0_E4typeEE4typeEEEEDpOSD_(ptr dead_on_unwind writable sret(%"class.fmt::v8::format_arg_store.9") align 16 %23, ptr noundef nonnull align 8 dereferenceable(8) %48, ptr noundef nonnull align 4 dereferenceable(4) %49)
  store ptr %22, ptr %9, align 8
  store ptr %23, ptr %10, align 8
  %50 = load ptr, ptr %9, align 8
  %51 = load ptr, ptr %10, align 8
  store ptr %51, ptr %5, align 8
  %52 = load ptr, ptr %5, align 8
  store ptr %50, ptr %6, align 8
  store i64 36, ptr %7, align 8
  store ptr %52, ptr %8, align 8
  %53 = load ptr, ptr %6, align 8
  %54 = load i64, ptr %7, align 8
  store i64 %54, ptr %53, align 8
  %55 = getelementptr inbounds %"class.fmt::v8::basic_format_args", ptr %53, i32 0, i32 1
  %56 = load ptr, ptr %8, align 8
  store ptr %56, ptr %55, align 8
  %57 = load ptr, ptr %21, align 8, !noalias !15
  %58 = getelementptr inbounds { ptr, i64 }, ptr %21, i32 0, i32 1
  %59 = load i64, ptr %58, align 8, !noalias !15
  %60 = load i64, ptr %22, align 8, !noalias !15
  %61 = getelementptr inbounds { i64, ptr }, ptr %22, i32 0, i32 1
  %62 = load ptr, ptr %61, align 8, !noalias !15
  call void @_ZN3fmt2v87vformatB5cxx11ENS0_17basic_string_viewIcEENS0_17basic_format_argsINS0_20basic_format_contextINS0_8appenderEcEEEE(ptr dead_on_unwind writable sret(%"class.std::__cxx11::basic_string") align 8 %0, ptr %57, i64 %59, i64 %60, ptr %62)
  ret void
}