; Function Attrs: mustprogress uwtable
define void @_ZN8WasmEdge19convertUIntToHexStrB5cxx11Emj(ptr dead_on_unwind noalias writable sret(%"class.std::__cxx11::basic_string") align 8 %0, i64 noundef %1, i32 noundef %2) local_unnamed_addr #1 {
  %4 = alloca %"class.fmt::v8::format_arg_store.9", align 16
  %.sroa.speculated = tail call i32 @llvm.umin.i32(i32 %2, i32 16)
  %.sroa.029.0.insert.ext.i = zext nneg i32 %.sroa.speculated to i64
  store i64 %1, ptr %4, align 16, !alias.scope !15
  %5 = getelementptr inbounds nuw i8, ptr %4, i64 16
  store i64 %.sroa.029.0.insert.ext.i, ptr %5, align 16, !alias.scope !15
  call void @_ZN3fmt2v87vformatB5cxx11ENS0_17basic_string_viewIcEENS0_17basic_format_argsINS0_20basic_format_contextINS0_8appenderEcEEEE(ptr dead_on_unwind writable sret(%"class.std::__cxx11::basic_string") align 8 %0, ptr nonnull @.str.1, i64 9, i64 36, ptr nonnull %4)
  ret void
}